; Function Attrs: mustprogress uwtable
define void @_ZN2cv8saliency25StaticSaliencyFineGrainedC2Ev(ptr noundef nonnull align 8 dereferenceable(8) initializes((0, 8)) %0, ptr noundef readonly captures(none) %1) unnamed_addr #3 align 2 personality ptr @__gxx_personality_v0 {
_ZNSt7__cxx1112basic_stringIcSt11char_traitsIcESaIcEEaSEPKc.exit:
  %2 = getelementptr inbounds nuw i8, ptr %1, i64 8
  %3 = load ptr, ptr %2, align 8
  store ptr %3, ptr %0, align 8, !tbaa !3
  %4 = getelementptr inbounds nuw i8, ptr %1, i64 16
  %5 = load ptr, ptr %4, align 8
  %6 = getelementptr i8, ptr %3, i64 -80
  %7 = load i64, ptr %6, align 8
  %8 = getelementptr inbounds i8, ptr %0, i64 %7
  store ptr %5, ptr %8, align 8, !tbaa !3
  %9 = getelementptr inbounds nuw i8, ptr %1, i64 24
  %10 = load ptr, ptr %9, align 8
  %11 = load ptr, ptr %0, align 8, !tbaa !3
  %12 = getelementptr i8, ptr %11, i64 -88
  %13 = load i64, ptr %12, align 8
  %14 = getelementptr inbounds i8, ptr %0, i64 %13
  store ptr %10, ptr %14, align 8, !tbaa !3
  %15 = load ptr, ptr %1, align 8
  store ptr %15, ptr %0, align 8, !tbaa !3
  %16 = getelementptr inbounds nuw i8, ptr %1, i64 32
  %17 = load ptr, ptr %16, align 8
  %18 = getelementptr i8, ptr %15, i64 -80
  %19 = load i64, ptr %18, align 8
  %20 = getelementptr inbounds i8, ptr %0, i64 %19
  store ptr %17, ptr %20, align 8, !tbaa !3
  %21 = getelementptr inbounds nuw i8, ptr %1, i64 40
  %22 = load ptr, ptr %21, align 8
  %23 = load ptr, ptr %0, align 8, !tbaa !3
  %24 = getelementptr i8, ptr %23, i64 -88
  %25 = load i64, ptr %24, align 8
  %26 = getelementptr inbounds i8, ptr %0, i64 %25
  store ptr %22, ptr %26, align 8, !tbaa !3
  %27 = load ptr, ptr %0, align 8, !tbaa !3
  %28 = getelementptr i8, ptr %27, i64 -80
  %29 = load i64, ptr %28, align 8
  %30 = getelementptr inbounds i8, ptr %0, i64 %29
  %31 = getelementptr inbounds nuw i8, ptr %30, i64 8
  %32 = getelementptr inbounds nuw i8, ptr %30, i64 16
  %33 = load i64, ptr %32, align 8, !tbaa !6
  %34 = tail call noundef nonnull align 8 dereferenceable(32) ptr @_ZNSt7__cxx1112basic_stringIcSt11char_traitsIcESaIcEE10_M_replaceEmmPKcm(ptr noundef nonnull align 8 dereferenceable(32) %31, i64 noundef 0, i64 noundef %33, ptr noundef nonnull @.str, i64 noundef 12)
  ret void
}